target datalayout = "e-m:e-p270:32:32-p271:32:32-p272:64:64-i64:64-i128:128-f80:128-n8:16:32:64-S128"
target triple = "x86_64-pc-linux-gnu"

@.str.15 = private unnamed_addr constant [32 x i8] c"../openssl/crypto/x509/v3_san.c\00", align 1
@__func__.v2i_GENERAL_NAMES = private unnamed_addr constant [18 x i8] c"v2i_GENERAL_NAMES\00", align 1

; Function Attrs: inlinehint nounwind uwtable
define internal ptr @ossl_check_GENERAL_NAME_freefunc_type(ptr noundef %0) #3 {
  %2 = alloca ptr, align 8
  store ptr %0, ptr %2, align 8, !tbaa !20
  %3 = load ptr, ptr %2, align 8, !tbaa !20
  ret ptr %3
}

; Function Attrs: inlinehint nounwind uwtable
define internal ptr @ossl_check_GENERAL_NAME_type(ptr noundef %0) #3 {
  %2 = alloca ptr, align 8
  store ptr %0, ptr %2, align 8, !tbaa !14
  %3 = load ptr, ptr %2, align 8, !tbaa !14
  ret ptr %3
}

; Function Attrs: inlinehint nounwind uwtable
define internal ptr @ossl_check_GENERAL_NAME_sk_type(ptr noundef %0) #3 {
  %2 = alloca ptr, align 8
  store ptr %0, ptr %2, align 8, !tbaa !8
  %3 = load ptr, ptr %2, align 8, !tbaa !8
  ret ptr %3
}

; Function Attrs: nounwind uwtable
define ptr @v2i_GENERAL_NAME(ptr noundef %0, ptr noundef %1, ptr noundef %2) #1 {
  %4 = alloca ptr, align 8
  %5 = alloca ptr, align 8
  %6 = alloca ptr, align 8
  store ptr %0, ptr %4, align 8, !tbaa !3
  store ptr %1, ptr %5, align 8, !tbaa !18
  store ptr %2, ptr %6, align 8, !tbaa !20
  %7 = load ptr, ptr %4, align 8, !tbaa !3
  %8 = load ptr, ptr %5, align 8, !tbaa !18
  %9 = load ptr, ptr %6, align 8, !tbaa !20
  %10 = call ptr @v2i_GENERAL_NAME_ex(ptr noundef null, ptr noundef %7, ptr noundef %8, ptr noundef %9, i32 noundef 0)
  ret ptr %10
}

; Function Attrs: inlinehint nounwind uwtable
define internal ptr @ossl_check_GENERAL_NAME_compfunc_type(ptr noundef %0) #3 {
  %2 = alloca ptr, align 8
  store ptr %0, ptr %2, align 8, !tbaa !20
  %3 = load ptr, ptr %2, align 8, !tbaa !20
  ret ptr %3
}

; Function Attrs: inlinehint nounwind uwtable
define internal ptr @ossl_check_const_CONF_VALUE_sk_type(ptr noundef %0) #3 {
  %2 = alloca ptr, align 8
  store ptr %0, ptr %2, align 8, !tbaa !10
  %3 = load ptr, ptr %2, align 8, !tbaa !10
  ret ptr %3
}

; Function Attrs: nounwind uwtable
define ptr @v2i_GENERAL_NAMES(ptr noundef %0, ptr noundef %1, ptr noundef %2) #1 {
  %4 = alloca ptr, align 8
  %5 = alloca ptr, align 8
  %6 = alloca ptr, align 8
  %7 = alloca ptr, align 8
  %8 = alloca ptr, align 8
  %9 = alloca ptr, align 8
  %10 = alloca ptr, align 8
  %11 = alloca i32, align 4
  %12 = alloca i32, align 4
  %13 = alloca i32, align 4
  store ptr %0, ptr %5, align 8, !tbaa !3
  store ptr %1, ptr %6, align 8, !tbaa !18
  store ptr %2, ptr %7, align 8, !tbaa !10
  call void @llvm.lifetime.start.p0(i64 8, ptr %8) #5
  call void @llvm.lifetime.start.p0(i64 8, ptr %9) #5
  call void @llvm.lifetime.start.p0(i64 8, ptr %10) #5
  call void @llvm.lifetime.start.p0(i64 4, ptr %11) #5
  %14 = load ptr, ptr %7, align 8, !tbaa !10
  %15 = call ptr @ossl_check_const_CONF_VALUE_sk_type(ptr noundef %14)
  %16 = call i32 @OPENSSL_sk_num(ptr noundef %15)
  store i32 %16, ptr %11, align 4, !tbaa !12
  call void @llvm.lifetime.start.p0(i64 4, ptr %12) #5
  %17 = call ptr @ossl_check_GENERAL_NAME_compfunc_type(ptr noundef null)
  %18 = load i32, ptr %11, align 4, !tbaa !12
  %19 = call ptr @OPENSSL_sk_new_reserve(ptr noundef %17, i32 noundef %18)
  store ptr %19, ptr %9, align 8, !tbaa !8
  %20 = load ptr, ptr %9, align 8, !tbaa !8
  %21 = icmp eq ptr %20, null
  br i1 %21, label %22, label %23

22:                                               ; preds = %3
  call void @ERR_new()
  call void @ERR_set_debug(ptr noundef @.str.15, i32 noundef 484, ptr noundef @__func__.v2i_GENERAL_NAMES)
  call void (i32, i32, ptr, ...) @ERR_set_error(i32 noundef 34, i32 noundef 524303, ptr noundef null)
  store ptr null, ptr %4, align 8
  store i32 1, ptr %13, align 4
  br label %54

23:                                               ; preds = %3
  store i32 0, ptr %12, align 4, !tbaa !12
  br label %24

24:                                               ; preds = %45, %23
  %25 = load i32, ptr %12, align 4, !tbaa !12
  %26 = load i32, ptr %11, align 4, !tbaa !12
  %27 = icmp slt i32 %25, %26
  br i1 %27, label %28, label %48

28:                                               ; preds = %24
  %29 = load ptr, ptr %7, align 8, !tbaa !10
  %30 = call ptr @ossl_check_const_CONF_VALUE_sk_type(ptr noundef %29)
  %31 = load i32, ptr %12, align 4, !tbaa !12
  %32 = call ptr @OPENSSL_sk_value(ptr noundef %30, i32 noundef %31)
  store ptr %32, ptr %10, align 8, !tbaa !20
  %33 = load ptr, ptr %5, align 8, !tbaa !3
  %34 = load ptr, ptr %6, align 8, !tbaa !18
  %35 = load ptr, ptr %10, align 8, !tbaa !20
  %36 = call ptr @v2i_GENERAL_NAME(ptr noundef %33, ptr noundef %34, ptr noundef %35)
  store ptr %36, ptr %8, align 8, !tbaa !14
  %37 = icmp eq ptr %36, null
  br i1 %37, label %38, label %39

38:                                               ; preds = %28
  br label %50

39:                                               ; preds = %28
  %40 = load ptr, ptr %9, align 8, !tbaa !8
  %41 = call ptr @ossl_check_GENERAL_NAME_sk_type(ptr noundef %40)
  %42 = load ptr, ptr %8, align 8, !tbaa !14
  %43 = call ptr @ossl_check_GENERAL_NAME_type(ptr noundef %42)
  %44 = call i32 @OPENSSL_sk_push(ptr noundef %41, ptr noundef %43)
  br label %45

45:                                               ; preds = %39
  %46 = load i32, ptr %12, align 4, !tbaa !12
  %47 = add nsw i32 %46, 1
  store i32 %47, ptr %12, align 4, !tbaa !12
  br label %24, !llvm.loop !44

48:                                               ; preds = %24
  %49 = load ptr, ptr %9, align 8, !tbaa !8
  store ptr %49, ptr %4, align 8
  store i32 1, ptr %13, align 4
  br label %54

50:                                               ; preds = %38
  %51 = load ptr, ptr %9, align 8, !tbaa !8
  %52 = call ptr @ossl_check_GENERAL_NAME_sk_type(ptr noundef %51)
  %53 = call ptr @ossl_check_GENERAL_NAME_freefunc_type(ptr noundef @GENERAL_NAME_free)
  call void @OPENSSL_sk_pop_free(ptr noundef %52, ptr noundef %53)
  store ptr null, ptr %4, align 8
  store i32 1, ptr %13, align 4
  br label %54

54:                                               ; preds = %50, %48, %22
  call void @llvm.lifetime.end.p0(i64 4, ptr %12) #5
  call void @llvm.lifetime.end.p0(i64 4, ptr %11) #5
  call void @llvm.lifetime.end.p0(i64 8, ptr %10) #5
  call void @llvm.lifetime.end.p0(i64 8, ptr %9) #5
  call void @llvm.lifetime.end.p0(i64 8, ptr %8) #5
  %55 = load ptr, ptr %4, align 8
  ret ptr %55
}