; Function Attrs: nounwind uwtable
define ptr @v2i_GENERAL_NAMES(ptr noundef readnone captures(none) %0, ptr noundef %1, ptr noundef %2) local_unnamed_addr #1 {
  %4 = tail call i32 @OPENSSL_sk_num(ptr noundef %2) #4
  %5 = tail call ptr @OPENSSL_sk_new_reserve(ptr noundef null, i32 noundef %4) #4
  %6 = icmp eq ptr %5, null
  br i1 %6, label %8, label %.preheader

.preheader:                                       ; preds = %3
  %7 = icmp sgt i32 %4, 0
  br i1 %7, label %.lr.ph, label %.loopexit

8:                                                ; preds = %3
  tail call void @ERR_new() #4
  tail call void @ERR_set_debug(ptr noundef nonnull @.str.15, i32 noundef 484, ptr noundef nonnull @__func__.v2i_GENERAL_NAMES) #4
  tail call void (i32, i32, ptr, ...) @ERR_set_error(i32 noundef 34, i32 noundef 524303, ptr noundef null) #4
  br label %.loopexit

.lr.ph:                                           ; preds = %.preheader, %12
  %.018 = phi i32 [ %14, %12 ], [ 0, %.preheader ]
  %9 = tail call ptr @OPENSSL_sk_value(ptr noundef %2, i32 noundef %.018) #4
  %10 = tail call ptr @v2i_GENERAL_NAME_ex(ptr noundef null, ptr noundef readnone %0, ptr noundef %1, ptr noundef readonly %9, i32 noundef 0)
  %11 = icmp eq ptr %10, null
  br i1 %11, label %15, label %12

12:                                               ; preds = %.lr.ph
  %13 = tail call i32 @OPENSSL_sk_push(ptr noundef nonnull %5, ptr noundef nonnull %10) #4
  %14 = add nuw nsw i32 %.018, 1
  %exitcond.not = icmp eq i32 %14, %4
  br i1 %exitcond.not, label %.loopexit, label %.lr.ph, !llvm.loop !40

15:                                               ; preds = %.lr.ph
  tail call void @OPENSSL_sk_pop_free(ptr noundef nonnull %5, ptr noundef nonnull @GENERAL_NAME_free) #4
  br label %.loopexit

.loopexit:                                        ; preds = %12, %.preheader, %15, %8
  %.015 = phi ptr [ null, %8 ], [ null, %15 ], [ %5, %.preheader ], [ %5, %12 ]
  ret ptr %.015
}